target datalayout = "e-m:e-p270:32:32-p271:32:32-p272:64:64-i64:64-i128:128-f80:128-n8:16:32:64-S128"
target triple = "x86_64-pc-linux-gnu"

%struct.Clu_Man_t_ = type { i32, i32, i32, i32, i32, i32, i32, i32, i32, i32, i32, i32, i32, i32, i32, ptr, ptr, ptr, ptr, i32, i32, i32, ptr, ptr, ptr, i32, i32, i32, i32, ptr, ptr, ptr, i32, i32 }
%struct.Vec_Int_t_ = type { i32, i32, ptr }

@.str.19 = private unnamed_addr constant [67 x i8] c"Added to storage %d proved clauses (including %d one-hot clauses)\0A\00", align 1

; Function Attrs: inlinehint nounwind uwtable
define internal void @Vec_IntGrow(ptr noundef %0, i32 noundef %1) #2 {
  %3 = alloca ptr, align 8
  %4 = alloca i32, align 4
  store ptr %0, ptr %3, align 8, !tbaa !90
  store i32 %1, ptr %4, align 4, !tbaa !21
  %5 = load ptr, ptr %3, align 8, !tbaa !90
  %6 = getelementptr inbounds nuw %struct.Vec_Int_t_, ptr %5, i32 0, i32 0
  %7 = load i32, ptr %6, align 8, !tbaa !97
  %8 = load i32, ptr %4, align 4, !tbaa !21
  %9 = icmp sge i32 %7, %8
  br i1 %9, label %10, label %11

10:                                               ; preds = %2
  br label %36

11:                                               ; preds = %2
  %12 = load ptr, ptr %3, align 8, !tbaa !90
  %13 = getelementptr inbounds nuw %struct.Vec_Int_t_, ptr %12, i32 0, i32 2
  %14 = load ptr, ptr %13, align 8, !tbaa !93
  %15 = icmp ne ptr %14, null
  br i1 %15, label %16, label %24

16:                                               ; preds = %11
  %17 = load ptr, ptr %3, align 8, !tbaa !90
  %18 = getelementptr inbounds nuw %struct.Vec_Int_t_, ptr %17, i32 0, i32 2
  %19 = load ptr, ptr %18, align 8, !tbaa !93
  %20 = load i32, ptr %4, align 4, !tbaa !21
  %21 = sext i32 %20 to i64
  %22 = mul i64 4, %21
  %23 = call ptr @realloc(ptr noundef %19, i64 noundef %22) #14
  br label %29

24:                                               ; preds = %11
  %25 = load i32, ptr %4, align 4, !tbaa !21
  %26 = sext i32 %25 to i64
  %27 = mul i64 4, %26
  %28 = call noalias ptr @malloc(i64 noundef %27) #12
  br label %29

29:                                               ; preds = %24, %16
  %30 = phi ptr [ %23, %16 ], [ %28, %24 ]
  %31 = load ptr, ptr %3, align 8, !tbaa !90
  %32 = getelementptr inbounds nuw %struct.Vec_Int_t_, ptr %31, i32 0, i32 2
  store ptr %30, ptr %32, align 8, !tbaa !93
  %33 = load i32, ptr %4, align 4, !tbaa !21
  %34 = load ptr, ptr %3, align 8, !tbaa !90
  %35 = getelementptr inbounds nuw %struct.Vec_Int_t_, ptr %34, i32 0, i32 0
  store i32 %33, ptr %35, align 8, !tbaa !97
  br label %36

36:                                               ; preds = %29, %10
  ret void
}

; Function Attrs: inlinehint nounwind uwtable
define internal void @Vec_IntClear(ptr noundef %0) #2 {
  %2 = alloca ptr, align 8
  store ptr %0, ptr %2, align 8, !tbaa !90
  %3 = load ptr, ptr %2, align 8, !tbaa !90
  %4 = getelementptr inbounds nuw %struct.Vec_Int_t_, ptr %3, i32 0, i32 1
  store i32 0, ptr %4, align 4, !tbaa !91
  ret void
}

; Function Attrs: inlinehint nounwind uwtable
define internal void @Vec_IntPush(ptr noundef %0, i32 noundef %1) #2 {
  %3 = alloca ptr, align 8
  %4 = alloca i32, align 4
  store ptr %0, ptr %3, align 8, !tbaa !90
  store i32 %1, ptr %4, align 4, !tbaa !21
  %5 = load ptr, ptr %3, align 8, !tbaa !90
  %6 = getelementptr inbounds nuw %struct.Vec_Int_t_, ptr %5, i32 0, i32 1
  %7 = load i32, ptr %6, align 4, !tbaa !91
  %8 = load ptr, ptr %3, align 8, !tbaa !90
  %9 = getelementptr inbounds nuw %struct.Vec_Int_t_, ptr %8, i32 0, i32 0
  %10 = load i32, ptr %9, align 8, !tbaa !97
  %11 = icmp eq i32 %7, %10
  br i1 %11, label %12, label %26

12:                                               ; preds = %2
  %13 = load ptr, ptr %3, align 8, !tbaa !90
  %14 = getelementptr inbounds nuw %struct.Vec_Int_t_, ptr %13, i32 0, i32 0
  %15 = load i32, ptr %14, align 8, !tbaa !97
  %16 = icmp slt i32 %15, 16
  br i1 %16, label %17, label %19

17:                                               ; preds = %12
  %18 = load ptr, ptr %3, align 8, !tbaa !90
  call void @Vec_IntGrow(ptr noundef %18, i32 noundef 16)
  br label %25

19:                                               ; preds = %12
  %20 = load ptr, ptr %3, align 8, !tbaa !90
  %21 = load ptr, ptr %3, align 8, !tbaa !90
  %22 = getelementptr inbounds nuw %struct.Vec_Int_t_, ptr %21, i32 0, i32 0
  %23 = load i32, ptr %22, align 8, !tbaa !97
  %24 = mul nsw i32 2, %23
  call void @Vec_IntGrow(ptr noundef %20, i32 noundef %24)
  br label %25

25:                                               ; preds = %19, %17
  br label %26

26:                                               ; preds = %25, %2
  %27 = load i32, ptr %4, align 4, !tbaa !21
  %28 = load ptr, ptr %3, align 8, !tbaa !90
  %29 = getelementptr inbounds nuw %struct.Vec_Int_t_, ptr %28, i32 0, i32 2
  %30 = load ptr, ptr %29, align 8, !tbaa !93
  %31 = load ptr, ptr %3, align 8, !tbaa !90
  %32 = getelementptr inbounds nuw %struct.Vec_Int_t_, ptr %31, i32 0, i32 1
  %33 = load i32, ptr %32, align 4, !tbaa !91
  %34 = add nsw i32 %33, 1
  store i32 %34, ptr %32, align 4, !tbaa !91
  %35 = sext i32 %33 to i64
  %36 = getelementptr inbounds i32, ptr %30, i64 %35
  store i32 %27, ptr %36, align 4, !tbaa !21
  ret void
}

; Function Attrs: inlinehint nounwind uwtable
define internal i32 @Vec_IntEntry(ptr noundef %0, i32 noundef %1) #2 {
  %3 = alloca ptr, align 8
  %4 = alloca i32, align 4
  store ptr %0, ptr %3, align 8, !tbaa !90
  store i32 %1, ptr %4, align 4, !tbaa !21
  %5 = load ptr, ptr %3, align 8, !tbaa !90
  %6 = getelementptr inbounds nuw %struct.Vec_Int_t_, ptr %5, i32 0, i32 2
  %7 = load ptr, ptr %6, align 8, !tbaa !93
  %8 = load i32, ptr %4, align 4, !tbaa !21
  %9 = sext i32 %8 to i64
  %10 = getelementptr inbounds i32, ptr %7, i64 %9
  %11 = load i32, ptr %10, align 4, !tbaa !21
  ret i32 %11
}

; Function Attrs: inlinehint nounwind uwtable
define internal i32 @Vec_IntSize(ptr noundef %0) #2 {
  %2 = alloca ptr, align 8
  store ptr %0, ptr %2, align 8, !tbaa !90
  %3 = load ptr, ptr %2, align 8, !tbaa !90
  %4 = getelementptr inbounds nuw %struct.Vec_Int_t_, ptr %3, i32 0, i32 1
  %5 = load i32, ptr %4, align 4, !tbaa !91
  ret i32 %5
}

; Function Attrs: inlinehint nounwind uwtable
define internal ptr @Vec_IntArray(ptr noundef %0) #2 {
  %2 = alloca ptr, align 8
  store ptr %0, ptr %2, align 8, !tbaa !90
  %3 = load ptr, ptr %2, align 8, !tbaa !90
  %4 = getelementptr inbounds nuw %struct.Vec_Int_t_, ptr %3, i32 0, i32 2
  %5 = load ptr, ptr %4, align 8, !tbaa !93
  ret ptr %5
}

; Function Attrs: nounwind uwtable
define void @Fra_ClausAddToStorage(ptr noundef %0) #0 {
  %2 = alloca ptr, align 8
  %3 = alloca ptr, align 8
  %4 = alloca i32, align 4
  %5 = alloca i32, align 4
  %6 = alloca i32, align 4
  %7 = alloca i32, align 4
  %8 = alloca i32, align 4
  store ptr %0, ptr %2, align 8, !tbaa !3
  call void @llvm.lifetime.start.p0(i64 8, ptr %3) #11
  call void @llvm.lifetime.start.p0(i64 4, ptr %4) #11
  call void @llvm.lifetime.start.p0(i64 4, ptr %5) #11
  call void @llvm.lifetime.start.p0(i64 4, ptr %6) #11
  call void @llvm.lifetime.start.p0(i64 4, ptr %7) #11
  call void @llvm.lifetime.start.p0(i64 4, ptr %8) #11
  store i32 0, ptr %4, align 4, !tbaa !21
  store i32 0, ptr %6, align 4, !tbaa !21
  %9 = load ptr, ptr %2, align 8, !tbaa !3
  %10 = getelementptr inbounds nuw %struct.Clu_Man_t_, ptr %9, i32 0, i32 22
  %11 = load ptr, ptr %10, align 8, !tbaa !94
  %12 = call ptr @Vec_IntArray(ptr noundef %11)
  store ptr %12, ptr %3, align 8, !tbaa !42
  store i32 0, ptr %7, align 4, !tbaa !21
  br label %13

13:                                               ; preds = %77, %1
  %14 = load i32, ptr %7, align 4, !tbaa !21
  %15 = load ptr, ptr %2, align 8, !tbaa !3
  %16 = getelementptr inbounds nuw %struct.Clu_Man_t_, ptr %15, i32 0, i32 23
  %17 = load ptr, ptr %16, align 8, !tbaa !96
  %18 = call i32 @Vec_IntSize(ptr noundef %17)
  %19 = icmp slt i32 %14, %18
  br i1 %19, label %20, label %26

20:                                               ; preds = %13
  %21 = load ptr, ptr %2, align 8, !tbaa !3
  %22 = getelementptr inbounds nuw %struct.Clu_Man_t_, ptr %21, i32 0, i32 23
  %23 = load ptr, ptr %22, align 8, !tbaa !96
  %24 = load i32, ptr %7, align 4, !tbaa !21
  %25 = call i32 @Vec_IntEntry(ptr noundef %23, i32 noundef %24)
  store i32 %25, ptr %5, align 4, !tbaa !21
  br label %26

26:                                               ; preds = %20, %13
  %27 = phi i1 [ false, %13 ], [ true, %20 ]
  br i1 %27, label %28, label %80

28:                                               ; preds = %26
  %29 = load ptr, ptr %2, align 8, !tbaa !3
  %30 = getelementptr inbounds nuw %struct.Clu_Man_t_, ptr %29, i32 0, i32 24
  %31 = load ptr, ptr %30, align 8, !tbaa !83
  %32 = load i32, ptr %7, align 4, !tbaa !21
  %33 = call i32 @Vec_IntEntry(ptr noundef %31, i32 noundef %32)
  %34 = icmp eq i32 %33, -1
  br i1 %34, label %35, label %37

35:                                               ; preds = %28
  %36 = load i32, ptr %5, align 4, !tbaa !21
  store i32 %36, ptr %4, align 4, !tbaa !21
  br label %77

37:                                               ; preds = %28
  %38 = load i32, ptr %4, align 4, !tbaa !21
  store i32 %38, ptr %8, align 4, !tbaa !21
  br label %39

39:                                               ; preds = %52, %37
  %40 = load i32, ptr %8, align 4, !tbaa !21
  %41 = load i32, ptr %5, align 4, !tbaa !21
  %42 = icmp slt i32 %40, %41
  br i1 %42, label %43, label %55

43:                                               ; preds = %39
  %44 = load ptr, ptr %2, align 8, !tbaa !3
  %45 = getelementptr inbounds nuw %struct.Clu_Man_t_, ptr %44, i32 0, i32 29
  %46 = load ptr, ptr %45, align 8, !tbaa !142
  %47 = load ptr, ptr %3, align 8, !tbaa !42
  %48 = load i32, ptr %8, align 4, !tbaa !21
  %49 = sext i32 %48 to i64
  %50 = getelementptr inbounds i32, ptr %47, i64 %49
  %51 = load i32, ptr %50, align 4, !tbaa !21
  call void @Vec_IntPush(ptr noundef %46, i32 noundef %51)
  br label %52

52:                                               ; preds = %43
  %53 = load i32, ptr %8, align 4, !tbaa !21
  %54 = add nsw i32 %53, 1
  store i32 %54, ptr %8, align 4, !tbaa !21
  br label %39, !llvm.loop !195

55:                                               ; preds = %39
  %56 = load ptr, ptr %2, align 8, !tbaa !3
  %57 = getelementptr inbounds nuw %struct.Clu_Man_t_, ptr %56, i32 0, i32 30
  %58 = load ptr, ptr %57, align 8, !tbaa !141
  %59 = load ptr, ptr %2, align 8, !tbaa !3
  %60 = getelementptr inbounds nuw %struct.Clu_Man_t_, ptr %59, i32 0, i32 29
  %61 = load ptr, ptr %60, align 8, !tbaa !142
  %62 = call i32 @Vec_IntSize(ptr noundef %61)
  call void @Vec_IntPush(ptr noundef %58, i32 noundef %62)
  %63 = load i32, ptr %5, align 4, !tbaa !21
  store i32 %63, ptr %4, align 4, !tbaa !21
  %64 = load i32, ptr %6, align 4, !tbaa !21
  %65 = add nsw i32 %64, 1
  store i32 %65, ptr %6, align 4, !tbaa !21
  %66 = load i32, ptr %7, align 4, !tbaa !21
  %67 = load ptr, ptr %2, align 8, !tbaa !3
  %68 = getelementptr inbounds nuw %struct.Clu_Man_t_, ptr %67, i32 0, i32 27
  %69 = load i32, ptr %68, align 8, !tbaa !106
  %70 = icmp slt i32 %66, %69
  br i1 %70, label %71, label %76

71:                                               ; preds = %55
  %72 = load ptr, ptr %2, align 8, !tbaa !3
  %73 = getelementptr inbounds nuw %struct.Clu_Man_t_, ptr %72, i32 0, i32 28
  %74 = load i32, ptr %73, align 4, !tbaa !107
  %75 = add nsw i32 %74, 1
  store i32 %75, ptr %73, align 4, !tbaa !107
  br label %76

76:                                               ; preds = %71, %55
  br label %77

77:                                               ; preds = %76, %35
  %78 = load i32, ptr %7, align 4, !tbaa !21
  %79 = add nsw i32 %78, 1
  store i32 %79, ptr %7, align 4, !tbaa !21
  br label %13, !llvm.loop !196

80:                                               ; preds = %26
  %81 = load ptr, ptr %2, align 8, !tbaa !3
  %82 = getelementptr inbounds nuw %struct.Clu_Man_t_, ptr %81, i32 0, i32 9
  %83 = load i32, ptr %82, align 4, !tbaa !89
  %84 = icmp ne i32 %83, 0
  br i1 %84, label %85, label %91

85:                                               ; preds = %80
  %86 = load i32, ptr %6, align 4, !tbaa !21
  %87 = load ptr, ptr %2, align 8, !tbaa !3
  %88 = getelementptr inbounds nuw %struct.Clu_Man_t_, ptr %87, i32 0, i32 28
  %89 = load i32, ptr %88, align 4, !tbaa !107
  %90 = call i32 (ptr, ...) @printf(ptr noundef @.str.19, i32 noundef %86, i32 noundef %89)
  br label %91

91:                                               ; preds = %85, %80
  %92 = load ptr, ptr %2, align 8, !tbaa !3
  %93 = getelementptr inbounds nuw %struct.Clu_Man_t_, ptr %92, i32 0, i32 23
  %94 = load ptr, ptr %93, align 8, !tbaa !96
  call void @Vec_IntClear(ptr noundef %94)
  %95 = load ptr, ptr %2, align 8, !tbaa !3
  %96 = getelementptr inbounds nuw %struct.Clu_Man_t_, ptr %95, i32 0, i32 22
  %97 = load ptr, ptr %96, align 8, !tbaa !94
  call void @Vec_IntClear(ptr noundef %97)
  %98 = load ptr, ptr %2, align 8, !tbaa !3
  %99 = getelementptr inbounds nuw %struct.Clu_Man_t_, ptr %98, i32 0, i32 24
  %100 = load ptr, ptr %99, align 8, !tbaa !83
  call void @Vec_IntClear(ptr noundef %100)
  %101 = load ptr, ptr %2, align 8, !tbaa !3
  %102 = getelementptr inbounds nuw %struct.Clu_Man_t_, ptr %101, i32 0, i32 25
  store i32 0, ptr %102, align 8, !tbaa !88
  %103 = load i32, ptr %6, align 4, !tbaa !21
  %104 = icmp eq i32 %103, 0
  %105 = zext i1 %104 to i32
  %106 = load ptr, ptr %2, align 8, !tbaa !3
  %107 = getelementptr inbounds nuw %struct.Clu_Man_t_, ptr %106, i32 0, i32 21
  store i32 %105, ptr %107, align 8, !tbaa !197
  call void @llvm.lifetime.end.p0(i64 4, ptr %8) #11
  call void @llvm.lifetime.end.p0(i64 4, ptr %7) #11
  call void @llvm.lifetime.end.p0(i64 4, ptr %6) #11
  call void @llvm.lifetime.end.p0(i64 4, ptr %5) #11
  call void @llvm.lifetime.end.p0(i64 4, ptr %4) #11
  call void @llvm.lifetime.end.p0(i64 8, ptr %3) #11
  ret void
}