; Function Attrs: nounwind uwtable
define void @Fra_ClausAddToStorage(ptr noundef captures(none) %0) local_unnamed_addr #0 {
  %2 = getelementptr inbounds nuw i8, ptr %0, i64 112
  %3 = load ptr, ptr %2, align 8, !tbaa !86
  %4 = getelementptr i8, ptr %3, i64 8
  %.val38 = load ptr, ptr %4, align 8, !tbaa !79
  %5 = getelementptr inbounds nuw i8, ptr %0, i64 120
  %6 = load ptr, ptr %5, align 8, !tbaa !89
  %7 = getelementptr i8, ptr %6, i64 4
  %.val3547 = load i32, ptr %7, align 4, !tbaa !77
  %8 = icmp sgt i32 %.val3547, 0
  br i1 %8, label %.lr.ph52, label %.critedge

.lr.ph52:                                         ; preds = %1
  %9 = getelementptr inbounds nuw i8, ptr %0, i64 128
  %10 = getelementptr inbounds nuw i8, ptr %0, i64 152
  %11 = getelementptr inbounds nuw i8, ptr %0, i64 160
  %12 = getelementptr inbounds nuw i8, ptr %0, i64 144
  %13 = getelementptr inbounds nuw i8, ptr %0, i64 148
  br label %14

14:                                               ; preds = %.lr.ph52, %101
  %indvars.iv54 = phi i64 [ 0, %.lr.ph52 ], [ %indvars.iv.next55, %101 ]
  %15 = phi ptr [ %6, %.lr.ph52 ], [ %102, %101 ]
  %.03249 = phi i32 [ 0, %.lr.ph52 ], [ %.1, %101 ]
  %.03348 = phi i32 [ 0, %.lr.ph52 ], [ %18, %101 ]
  %16 = getelementptr i8, ptr %15, i64 8
  %.val37 = load ptr, ptr %16, align 8, !tbaa !79
  %17 = getelementptr inbounds nuw i32, ptr %.val37, i64 %indvars.iv54
  %18 = load i32, ptr %17, align 4, !tbaa !38
  %19 = load ptr, ptr %9, align 8, !tbaa !76
  %20 = getelementptr i8, ptr %19, i64 8
  %.val36 = load ptr, ptr %20, align 8, !tbaa !79
  %21 = getelementptr inbounds nuw i32, ptr %.val36, i64 %indvars.iv54
  %22 = load i32, ptr %21, align 4, !tbaa !38
  %23 = icmp eq i32 %22, -1
  br i1 %23, label %101, label %.preheader

.preheader:                                       ; preds = %14
  %24 = icmp slt i32 %.03348, %18
  br i1 %24, label %.lr.ph.preheader, label %._crit_edge

.lr.ph.preheader:                                 ; preds = %.preheader
  %25 = sext i32 %.03348 to i64
  %wide.trip.count = sext i32 %18 to i64
  br label %.lr.ph

.lr.ph:                                           ; preds = %.lr.ph.preheader, %Vec_IntPush.exit
  %indvars.iv = phi i64 [ %25, %.lr.ph.preheader ], [ %indvars.iv.next, %Vec_IntPush.exit ]
  %26 = load ptr, ptr %10, align 8, !tbaa !135
  %27 = getelementptr inbounds i32, ptr %.val38, i64 %indvars.iv
  %28 = load i32, ptr %27, align 4, !tbaa !38
  %29 = getelementptr inbounds nuw i8, ptr %26, i64 4
  %30 = load i32, ptr %29, align 4, !tbaa !77
  %31 = load i32, ptr %26, align 8, !tbaa !87
  %32 = icmp eq i32 %30, %31
  br i1 %32, label %33, label %.Vec_IntGrow.exit10_crit_edge.i

.Vec_IntGrow.exit10_crit_edge.i:                  ; preds = %.lr.ph
  %.phi.trans.insert.i = getelementptr inbounds nuw i8, ptr %26, i64 8
  %.pre.i = load ptr, ptr %.phi.trans.insert.i, align 8, !tbaa !79
  br label %Vec_IntPush.exit

33:                                               ; preds = %.lr.ph
  %34 = icmp slt i32 %30, 16
  br i1 %34, label %35, label %43

35:                                               ; preds = %33
  %36 = getelementptr inbounds nuw i8, ptr %26, i64 8
  %37 = load ptr, ptr %36, align 8, !tbaa !79
  %.not9.i.i = icmp eq ptr %37, null
  br i1 %.not9.i.i, label %40, label %38

38:                                               ; preds = %35
  %39 = tail call dereferenceable_or_null(64) ptr @realloc(ptr noundef nonnull %37, i64 noundef 64) #25
  br label %Vec_IntGrow.exit.i

40:                                               ; preds = %35
  %41 = tail call noalias dereferenceable_or_null(64) ptr @malloc(i64 noundef 64) #24
  br label %Vec_IntGrow.exit.i

Vec_IntGrow.exit.i:                               ; preds = %40, %38
  %42 = phi ptr [ %39, %38 ], [ %41, %40 ]
  store ptr %42, ptr %36, align 8, !tbaa !79
  store i32 16, ptr %26, align 8, !tbaa !87
  br label %Vec_IntPush.exit

43:                                               ; preds = %33
  %44 = shl nuw nsw i32 %30, 1
  %45 = getelementptr inbounds nuw i8, ptr %26, i64 8
  %46 = load ptr, ptr %45, align 8, !tbaa !79
  %.not9.i9.i = icmp eq ptr %46, null
  %47 = zext nneg i32 %44 to i64
  %48 = shl nuw nsw i64 %47, 2
  br i1 %.not9.i9.i, label %51, label %49

49:                                               ; preds = %43
  %50 = tail call ptr @realloc(ptr noundef nonnull %46, i64 noundef %48) #25
  br label %53

51:                                               ; preds = %43
  %52 = tail call noalias ptr @malloc(i64 noundef %48) #24
  br label %53

53:                                               ; preds = %51, %49
  %54 = phi ptr [ %50, %49 ], [ %52, %51 ]
  store ptr %54, ptr %45, align 8, !tbaa !79
  store i32 %44, ptr %26, align 8, !tbaa !87
  br label %Vec_IntPush.exit

Vec_IntPush.exit:                                 ; preds = %.Vec_IntGrow.exit10_crit_edge.i, %Vec_IntGrow.exit.i, %53
  %55 = phi ptr [ %.pre.i, %.Vec_IntGrow.exit10_crit_edge.i ], [ %54, %53 ], [ %42, %Vec_IntGrow.exit.i ]
  %56 = load i32, ptr %29, align 4, !tbaa !77
  %57 = add nsw i32 %56, 1
  store i32 %57, ptr %29, align 4, !tbaa !77
  %58 = sext i32 %56 to i64
  %59 = getelementptr inbounds i32, ptr %55, i64 %58
  store i32 %28, ptr %59, align 4, !tbaa !38
  %indvars.iv.next = add nsw i64 %indvars.iv, 1
  %exitcond.not = icmp eq i64 %indvars.iv.next, %wide.trip.count
  br i1 %exitcond.not, label %._crit_edge, label %.lr.ph, !llvm.loop !187

._crit_edge:                                      ; preds = %Vec_IntPush.exit, %.preheader
  %60 = load ptr, ptr %11, align 8, !tbaa !134
  %61 = load ptr, ptr %10, align 8, !tbaa !135
  %62 = getelementptr i8, ptr %61, i64 4
  %.val = load i32, ptr %62, align 4, !tbaa !77
  %63 = getelementptr inbounds nuw i8, ptr %60, i64 4
  %64 = load i32, ptr %63, align 4, !tbaa !77
  %65 = load i32, ptr %60, align 8, !tbaa !87
  %66 = icmp eq i32 %64, %65
  br i1 %66, label %67, label %.Vec_IntGrow.exit10_crit_edge.i39

.Vec_IntGrow.exit10_crit_edge.i39:                ; preds = %._crit_edge
  %.phi.trans.insert.i40 = getelementptr inbounds nuw i8, ptr %60, i64 8
  %.pre.i41 = load ptr, ptr %.phi.trans.insert.i40, align 8, !tbaa !79
  br label %Vec_IntPush.exit45

67:                                               ; preds = %._crit_edge
  %68 = icmp slt i32 %64, 16
  br i1 %68, label %69, label %77

69:                                               ; preds = %67
  %70 = getelementptr inbounds nuw i8, ptr %60, i64 8
  %71 = load ptr, ptr %70, align 8, !tbaa !79
  %.not9.i.i43 = icmp eq ptr %71, null
  br i1 %.not9.i.i43, label %74, label %72

72:                                               ; preds = %69
  %73 = tail call dereferenceable_or_null(64) ptr @realloc(ptr noundef nonnull %71, i64 noundef 64) #25
  br label %Vec_IntGrow.exit.i44

74:                                               ; preds = %69
  %75 = tail call noalias dereferenceable_or_null(64) ptr @malloc(i64 noundef 64) #24
  br label %Vec_IntGrow.exit.i44

Vec_IntGrow.exit.i44:                             ; preds = %74, %72
  %76 = phi ptr [ %73, %72 ], [ %75, %74 ]
  store ptr %76, ptr %70, align 8, !tbaa !79
  store i32 16, ptr %60, align 8, !tbaa !87
  br label %Vec_IntPush.exit45

77:                                               ; preds = %67
  %78 = shl nuw nsw i32 %64, 1
  %79 = getelementptr inbounds nuw i8, ptr %60, i64 8
  %80 = load ptr, ptr %79, align 8, !tbaa !79
  %.not9.i9.i42 = icmp eq ptr %80, null
  %81 = zext nneg i32 %78 to i64
  %82 = shl nuw nsw i64 %81, 2
  br i1 %.not9.i9.i42, label %85, label %83

83:                                               ; preds = %77
  %84 = tail call ptr @realloc(ptr noundef nonnull %80, i64 noundef %82) #25
  br label %87

85:                                               ; preds = %77
  %86 = tail call noalias ptr @malloc(i64 noundef %82) #24
  br label %87

87:                                               ; preds = %85, %83
  %88 = phi ptr [ %84, %83 ], [ %86, %85 ]
  store ptr %88, ptr %79, align 8, !tbaa !79
  store i32 %78, ptr %60, align 8, !tbaa !87
  br label %Vec_IntPush.exit45

Vec_IntPush.exit45:                               ; preds = %.Vec_IntGrow.exit10_crit_edge.i39, %Vec_IntGrow.exit.i44, %87
  %89 = phi ptr [ %.pre.i41, %.Vec_IntGrow.exit10_crit_edge.i39 ], [ %88, %87 ], [ %76, %Vec_IntGrow.exit.i44 ]
  %90 = load i32, ptr %63, align 4, !tbaa !77
  %91 = add nsw i32 %90, 1
  store i32 %91, ptr %63, align 4, !tbaa !77
  %92 = sext i32 %90 to i64
  %93 = getelementptr inbounds i32, ptr %89, i64 %92
  store i32 %.val, ptr %93, align 4, !tbaa !38
  %94 = add nsw i32 %.03249, 1
  %95 = load i32, ptr %12, align 8, !tbaa !100
  %96 = sext i32 %95 to i64
  %97 = icmp slt i64 %indvars.iv54, %96
  br i1 %97, label %98, label %101

98:                                               ; preds = %Vec_IntPush.exit45
  %99 = load i32, ptr %13, align 4, !tbaa !101
  %100 = add nsw i32 %99, 1
  store i32 %100, ptr %13, align 4, !tbaa !101
  br label %101

101:                                              ; preds = %14, %Vec_IntPush.exit45, %98
  %.1 = phi i32 [ %94, %98 ], [ %94, %Vec_IntPush.exit45 ], [ %.03249, %14 ]
  %indvars.iv.next55 = add nuw nsw i64 %indvars.iv54, 1
  %102 = load ptr, ptr %5, align 8, !tbaa !89
  %103 = getelementptr i8, ptr %102, i64 4
  %.val35 = load i32, ptr %103, align 4, !tbaa !77
  %104 = sext i32 %.val35 to i64
  %105 = icmp slt i64 %indvars.iv.next55, %104
  br i1 %105, label %14, label %.critedge, !llvm.loop !188

.critedge:                                        ; preds = %101, %1
  %106 = phi ptr [ %6, %1 ], [ %102, %101 ]
  %.032.lcssa = phi i32 [ 0, %1 ], [ %.1, %101 ]
  %107 = getelementptr inbounds nuw i8, ptr %0, i64 36
  %108 = load i32, ptr %107, align 4, !tbaa !85
  %.not = icmp eq i32 %108, 0
  br i1 %.not, label %113, label %109

109:                                              ; preds = %.critedge
  %110 = getelementptr inbounds nuw i8, ptr %0, i64 148
  %111 = load i32, ptr %110, align 4, !tbaa !101
  %112 = tail call i32 (ptr, ...) @printf(ptr noundef nonnull dereferenceable(1) @.str.19, i32 noundef %.032.lcssa, i32 noundef %111)
  %.pre = load ptr, ptr %5, align 8, !tbaa !89
  br label %113

113:                                              ; preds = %109, %.critedge
  %114 = phi ptr [ %.pre, %109 ], [ %106, %.critedge ]
  %115 = getelementptr inbounds nuw i8, ptr %114, i64 4
  store i32 0, ptr %115, align 4, !tbaa !77
  %116 = load ptr, ptr %2, align 8, !tbaa !86
  %117 = getelementptr inbounds nuw i8, ptr %116, i64 4
  store i32 0, ptr %117, align 4, !tbaa !77
  %118 = getelementptr inbounds nuw i8, ptr %0, i64 128
  %119 = load ptr, ptr %118, align 8, !tbaa !76
  %120 = getelementptr inbounds nuw i8, ptr %119, i64 4
  store i32 0, ptr %120, align 4, !tbaa !77
  %121 = getelementptr inbounds nuw i8, ptr %0, i64 136
  store i32 0, ptr %121, align 8, !tbaa !84
  %122 = icmp eq i32 %.032.lcssa, 0
  %123 = zext i1 %122 to i32
  %124 = getelementptr inbounds nuw i8, ptr %0, i64 104
  store i32 %123, ptr %124, align 8, !tbaa !189
  ret void
}